; Function Attrs: mustprogress uwtable
define hidden void @_ZN19OpenColorIO_v2_5dev10OpRcPtrVec9push_backERKSt10shared_ptrINS_2OpEE(ptr noundef nonnull align 8 dereferenceable(144) %0, ptr noundef nonnull align 8 dereferenceable(16) %1) local_unnamed_addr #6 align 2 personality ptr @__gxx_personality_v0 {
  %3 = getelementptr inbounds nuw i8, ptr %0, i64 8
  %4 = load ptr, ptr %3, align 8, !tbaa !62
  %5 = getelementptr inbounds nuw i8, ptr %0, i64 16
  %6 = load ptr, ptr %5, align 8, !tbaa !65
  %.not.i = icmp eq ptr %4, %6
  br i1 %.not.i, label %22, label %7

7:                                                ; preds = %2
  %8 = load ptr, ptr %1, align 8, !tbaa !59
  store ptr %8, ptr %4, align 8, !tbaa !59
  %9 = getelementptr inbounds nuw i8, ptr %4, i64 8
  %10 = getelementptr inbounds nuw i8, ptr %1, i64 8
  %11 = load ptr, ptr %10, align 8, !tbaa !20
  store ptr %11, ptr %9, align 8, !tbaa !20
  %.not.i.i.i.i.i.i = icmp eq ptr %11, null
  br i1 %.not.i.i.i.i.i.i, label %_ZNSt16allocator_traitsISaISt10shared_ptrIN19OpenColorIO_v2_5dev2OpEEEE9constructIS3_JRKS3_EEEvRS4_PT_DpOT0_.exit.i, label %12

12:                                               ; preds = %7
  %13 = getelementptr inbounds nuw i8, ptr %11, i64 8
  %14 = load i8, ptr @__libc_single_threaded, align 1, !tbaa !21
  %.not.i.i.i.i.i.i.i = icmp eq i8 %14, 0
  br i1 %.not.i.i.i.i.i.i.i, label %18, label %15

15:                                               ; preds = %12
  %16 = load i32, ptr %13, align 4, !tbaa !22
  %17 = add nsw i32 %16, 1
  store i32 %17, ptr %13, align 4, !tbaa !22
  br label %_ZNSt16allocator_traitsISaISt10shared_ptrIN19OpenColorIO_v2_5dev2OpEEEE9constructIS3_JRKS3_EEEvRS4_PT_DpOT0_.exit.i

18:                                               ; preds = %12
  %19 = atomicrmw volatile add ptr %13, i32 1 acq_rel, align 4
  %.pre.i = load ptr, ptr %3, align 8, !tbaa !62
  br label %_ZNSt16allocator_traitsISaISt10shared_ptrIN19OpenColorIO_v2_5dev2OpEEEE9constructIS3_JRKS3_EEEvRS4_PT_DpOT0_.exit.i

_ZNSt16allocator_traitsISaISt10shared_ptrIN19OpenColorIO_v2_5dev2OpEEEE9constructIS3_JRKS3_EEEvRS4_PT_DpOT0_.exit.i: ; preds = %18, %15, %7
  %20 = phi ptr [ %4, %7 ], [ %4, %15 ], [ %.pre.i, %18 ]
  %21 = getelementptr inbounds nuw i8, ptr %20, i64 16
  store ptr %21, ptr %3, align 8, !tbaa !62
  br label %_ZNSt6vectorISt10shared_ptrIN19OpenColorIO_v2_5dev2OpEESaIS3_EE9push_backERKS3_.exit

22:                                               ; preds = %2
  tail call void @_ZNSt6vectorISt10shared_ptrIN19OpenColorIO_v2_5dev2OpEESaIS3_EE17_M_realloc_insertIJRKS3_EEEvN9__gnu_cxx17__normal_iteratorIPS3_S5_EEDpOT_(ptr noundef nonnull align 8 dereferenceable(24) %0, ptr %4, ptr noundef nonnull align 8 dereferenceable(16) %1)
  br label %_ZNSt6vectorISt10shared_ptrIN19OpenColorIO_v2_5dev2OpEESaIS3_EE9push_backERKS3_.exit

_ZNSt6vectorISt10shared_ptrIN19OpenColorIO_v2_5dev2OpEESaIS3_EE9push_backERKS3_.exit: ; preds = %_ZNSt16allocator_traitsISaISt10shared_ptrIN19OpenColorIO_v2_5dev2OpEEEE9constructIS3_JRKS3_EEEvRS4_PT_DpOT0_.exit.i, %22
  ret void
}